target datalayout = "e-m:e-p270:32:32-p271:32:32-p272:64:64-i64:64-i128:128-f80:128-n8:16:32:64-S128"
target triple = "x86_64-pc-linux-gnu"

; Function Attrs: nounwind uwtable
define i32 @H5VM_array_fill(ptr noundef %0, ptr noundef %1, i64 noundef %2, i64 noundef %3) #0 {
  %5 = alloca ptr, align 8
  %6 = alloca ptr, align 8
  %7 = alloca i64, align 8
  %8 = alloca i64, align 8
  %9 = alloca i64, align 8
  %10 = alloca i64, align 8
  %11 = alloca i64, align 8
  %12 = alloca ptr, align 8
  store ptr %0, ptr %5, align 8
  store ptr %1, ptr %6, align 8
  store i64 %2, ptr %7, align 8
  store i64 %3, ptr %8, align 8
  %13 = load ptr, ptr %5, align 8
  store ptr %13, ptr %12, align 8
  %14 = load ptr, ptr %12, align 8
  %15 = load ptr, ptr %6, align 8
  %16 = load i64, ptr %7, align 8
  call void @llvm.memcpy.p0.p0.i64(ptr align 1 %14, ptr align 1 %15, i64 %16, i1 false)
  %17 = load i64, ptr %7, align 8
  store i64 %17, ptr %9, align 8
  store i64 1, ptr %10, align 8
  %18 = load i64, ptr %8, align 8
  %19 = sub i64 %18, 1
  store i64 %19, ptr %11, align 8
  %20 = load i64, ptr %7, align 8
  %21 = load ptr, ptr %12, align 8
  %22 = getelementptr inbounds i8, ptr %21, i64 %20
  store ptr %22, ptr %12, align 8
  br label %23

23:                                               ; preds = %27, %4
  %24 = load i64, ptr %11, align 8
  %25 = load i64, ptr %10, align 8
  %26 = icmp uge i64 %24, %25
  br i1 %26, label %27, label %41

27:                                               ; preds = %23
  %28 = load ptr, ptr %12, align 8
  %29 = load ptr, ptr %5, align 8
  %30 = load i64, ptr %9, align 8
  call void @llvm.memcpy.p0.p0.i64(ptr align 1 %28, ptr align 1 %29, i64 %30, i1 false)
  %31 = load i64, ptr %9, align 8
  %32 = load ptr, ptr %12, align 8
  %33 = getelementptr inbounds i8, ptr %32, i64 %31
  store ptr %33, ptr %12, align 8
  %34 = load i64, ptr %10, align 8
  %35 = load i64, ptr %11, align 8
  %36 = sub i64 %35, %34
  store i64 %36, ptr %11, align 8
  %37 = load i64, ptr %9, align 8
  %38 = mul i64 %37, 2
  store i64 %38, ptr %9, align 8
  %39 = load i64, ptr %10, align 8
  %40 = mul i64 %39, 2
  store i64 %40, ptr %10, align 8
  br label %23

41:                                               ; preds = %23
  %42 = load i64, ptr %11, align 8
  %43 = icmp ugt i64 %42, 0
  br i1 %43, label %44, label %50

44:                                               ; preds = %41
  %45 = load ptr, ptr %12, align 8
  %46 = load ptr, ptr %5, align 8
  %47 = load i64, ptr %11, align 8
  %48 = load i64, ptr %7, align 8
  %49 = mul i64 %47, %48
  call void @llvm.memcpy.p0.p0.i64(ptr align 1 %45, ptr align 1 %46, i64 %49, i1 false)
  br label %50

50:                                               ; preds = %44, %41
  ret i32 0
}