; Function Attrs: nofree norecurse nosync nounwind memory(readwrite, inaccessiblemem: none) uwtable
define noundef i32 @H5VM_array_fill(ptr nocapture noundef %0, ptr nocapture noundef readonly %1, i64 noundef %2, i64 noundef %3) local_unnamed_addr #2 {
  tail call void @llvm.memcpy.p0.p0.i64(ptr align 1 %0, ptr align 1 %1, i64 %2, i1 false)
  %5 = add i64 %3, -1
  %.not27 = icmp eq i64 %5, 0
  br i1 %.not27, label %._crit_edge.thread, label %.lr.ph.preheader

.lr.ph.preheader:                                 ; preds = %4
  %6 = getelementptr inbounds i8, ptr %0, i64 %2
  br label %.lr.ph

.lr.ph:                                           ; preds = %.lr.ph.preheader, %.lr.ph
  %.031 = phi ptr [ %7, %.lr.ph ], [ %6, %.lr.ph.preheader ]
  %.02330 = phi i64 [ %8, %.lr.ph ], [ %5, %.lr.ph.preheader ]
  %.02429 = phi i64 [ %10, %.lr.ph ], [ 1, %.lr.ph.preheader ]
  %.02528 = phi i64 [ %9, %.lr.ph ], [ %2, %.lr.ph.preheader ]
  tail call void @llvm.memcpy.p0.p0.i64(ptr align 1 %.031, ptr align 1 %0, i64 %.02528, i1 false)
  %7 = getelementptr inbounds i8, ptr %.031, i64 %.02528
  %8 = sub i64 %.02330, %.02429
  %9 = shl i64 %.02528, 1
  %10 = shl i64 %.02429, 1
  %.not = icmp ult i64 %8, %10
  br i1 %.not, label %._crit_edge, label %.lr.ph

._crit_edge:                                      ; preds = %.lr.ph
  %.not26 = icmp eq i64 %8, 0
  br i1 %.not26, label %._crit_edge.thread, label %11

11:                                               ; preds = %._crit_edge
  %12 = mul i64 %8, %2
  tail call void @llvm.memcpy.p0.p0.i64(ptr align 1 %7, ptr align 1 %0, i64 %12, i1 false)
  br label %._crit_edge.thread

._crit_edge.thread:                               ; preds = %4, %11, %._crit_edge
  ret i32 0
}